; Function Attrs: mustprogress uwtable
define dso_local noundef zeroext i1 @_ZN27cmCMakePresetsGraphInternal24PresetOptionalBoolHelperERSt8optionalIbEPKN4Json5ValueEP11cmJSONState(ptr noundef nonnull align 1 dereferenceable(2) %0, ptr noundef %1, ptr noundef %2) local_unnamed_addr #3 personality ptr @__gxx_personality_v0 {
  %4 = alloca ptr, align 8
  %5 = alloca ptr, align 8
  %6 = load atomic i8, ptr @_ZGVZN27cmCMakePresetsGraphInternal24PresetOptionalBoolHelperERSt8optionalIbEPKN4Json5ValueEP11cmJSONStateE6helper acquire, align 8
  %7 = icmp eq i8 %6, 0
  br i1 %7, label %8, label %12, !prof !23

8:                                                ; preds = %3
  %9 = tail call i32 @__cxa_guard_acquire(ptr nonnull @_ZGVZN27cmCMakePresetsGraphInternal24PresetOptionalBoolHelperERSt8optionalIbEPKN4Json5ValueEP11cmJSONStateE6helper) #23
  %.not = icmp eq i32 %9, 0
  br i1 %.not, label %12, label %10

10:                                               ; preds = %8
  store i64 0, ptr getelementptr inbounds (%"class.std::function.83", ptr @_ZZN27cmCMakePresetsGraphInternal24PresetOptionalBoolHelperERSt8optionalIbEPKN4Json5ValueEP11cmJSONStateE6helper, i64 0, i32 0, i32 0, i32 0, i32 0, i32 1), align 8, !alias.scope !24
  store i64 ptrtoint (ptr @_ZN27cmCMakePresetsGraphInternal16PresetBoolHelperERbPKN4Json5ValueEP11cmJSONState to i64), ptr @_ZZN27cmCMakePresetsGraphInternal24PresetOptionalBoolHelperERSt8optionalIbEPKN4Json5ValueEP11cmJSONStateE6helper, align 8, !alias.scope !24
  store ptr @_ZNSt17_Function_handlerIFbRSt8optionalIbEPKN4Json5ValueEP11cmJSONStateEZN19cmJSONHelperBuilder8OptionalIbPFbRbS6_S8_EEESt8functionIFbRS0_IT_ES6_S8_EET0_EUlS2_S6_S8_E_E9_M_invokeERKSt9_Any_dataS2_OS6_OS8_, ptr getelementptr inbounds (%"class.std::function.83", ptr @_ZZN27cmCMakePresetsGraphInternal24PresetOptionalBoolHelperERSt8optionalIbEPKN4Json5ValueEP11cmJSONStateE6helper, i64 0, i32 1), align 8, !alias.scope !24
  store ptr @_ZNSt17_Function_handlerIFbRSt8optionalIbEPKN4Json5ValueEP11cmJSONStateEZN19cmJSONHelperBuilder8OptionalIbPFbRbS6_S8_EEESt8functionIFbRS0_IT_ES6_S8_EET0_EUlS2_S6_S8_E_E10_M_managerERSt9_Any_dataRKSO_St18_Manager_operation, ptr getelementptr inbounds (%"class.std::function.83", ptr @_ZZN27cmCMakePresetsGraphInternal24PresetOptionalBoolHelperERSt8optionalIbEPKN4Json5ValueEP11cmJSONStateE6helper, i64 0, i32 0, i32 1), align 8, !alias.scope !24
  %11 = tail call i32 @__cxa_atexit(ptr nonnull @_ZNSt8functionIFbRSt8optionalIbEPKN4Json5ValueEP11cmJSONStateEED2Ev, ptr nonnull @_ZZN27cmCMakePresetsGraphInternal24PresetOptionalBoolHelperERSt8optionalIbEPKN4Json5ValueEP11cmJSONStateE6helper, ptr nonnull @__dso_handle) #23
  tail call void @__cxa_guard_release(ptr nonnull @_ZGVZN27cmCMakePresetsGraphInternal24PresetOptionalBoolHelperERSt8optionalIbEPKN4Json5ValueEP11cmJSONStateE6helper) #23
  br label %12

12:                                               ; preds = %10, %8, %3
  call void @llvm.lifetime.start.p0(i64 8, ptr nonnull %4)
  call void @llvm.lifetime.start.p0(i64 8, ptr nonnull %5)
  store ptr %1, ptr %4, align 8
  store ptr %2, ptr %5, align 8
  %13 = load ptr, ptr getelementptr inbounds (%"class.std::function.83", ptr @_ZZN27cmCMakePresetsGraphInternal24PresetOptionalBoolHelperERSt8optionalIbEPKN4Json5ValueEP11cmJSONStateE6helper, i64 0, i32 0, i32 1), align 8
  %.not.i.i = icmp eq ptr %13, null
  br i1 %.not.i.i, label %14, label %_ZNKSt8functionIFbRSt8optionalIbEPKN4Json5ValueEP11cmJSONStateEEclES2_S6_S8_.exit

14:                                               ; preds = %12
  tail call void @_ZSt25__throw_bad_function_callv() #24
  unreachable

_ZNKSt8functionIFbRSt8optionalIbEPKN4Json5ValueEP11cmJSONStateEEclES2_S6_S8_.exit: ; preds = %12
  %15 = load ptr, ptr getelementptr inbounds (%"class.std::function.83", ptr @_ZZN27cmCMakePresetsGraphInternal24PresetOptionalBoolHelperERSt8optionalIbEPKN4Json5ValueEP11cmJSONStateE6helper, i64 0, i32 1), align 8
  %16 = call noundef zeroext i1 %15(ptr noundef nonnull align 8 dereferenceable(16) @_ZZN27cmCMakePresetsGraphInternal24PresetOptionalBoolHelperERSt8optionalIbEPKN4Json5ValueEP11cmJSONStateE6helper, ptr noundef nonnull align 1 dereferenceable(2) %0, ptr noundef nonnull align 8 dereferenceable(8) %4, ptr noundef nonnull align 8 dereferenceable(8) %5)
  call void @llvm.lifetime.end.p0(i64 8, ptr nonnull %4)
  call void @llvm.lifetime.end.p0(i64 8, ptr nonnull %5)
  ret i1 %16
}